target datalayout = "e-m:e-p270:32:32-p271:32:32-p272:64:64-i64:64-i128:128-f80:128-n8:16:32:64-S128"
target triple = "x86_64-pc-linux-gnu"

%struct.Curl_cftype = type { ptr, i32, i32, ptr, ptr, ptr, ptr, ptr, ptr, ptr, ptr, ptr, ptr, ptr, ptr, ptr }
%struct.Curl_cfilter = type { ptr, ptr, ptr, ptr, i32, i8 }
%struct.curltime = type { i64, i32 }
%struct.cf_hc_ctx = type { i32, ptr, %struct.curltime, i32, %struct.cf_hc_baller, %struct.cf_hc_baller, i32, i32 }
%struct.cf_hc_baller = type { ptr, ptr, i32, %struct.curltime, i32, i8 }

; Function Attrs: nounwind uwtable
define internal { i64, i32 } @cf_get_max_baller_time(ptr noundef %0, ptr noundef %1, i32 noundef %2) #0 {
  %4 = alloca %struct.curltime, align 8
  %5 = alloca ptr, align 8
  %6 = alloca ptr, align 8
  %7 = alloca i32, align 4
  %8 = alloca ptr, align 8
  %9 = alloca ptr, align 8
  %10 = alloca %struct.curltime, align 8
  store ptr %0, ptr %5, align 8, !tbaa !4
  store ptr %1, ptr %6, align 8, !tbaa !9
  store i32 %2, ptr %7, align 4, !tbaa !95
  call void @llvm.lifetime.start.p0(i64 8, ptr %8) #5
  %11 = load ptr, ptr %5, align 8, !tbaa !4
  %12 = getelementptr inbounds nuw %struct.Curl_cfilter, ptr %11, i32 0, i32 2
  %13 = load ptr, ptr %12, align 8, !tbaa !11
  store ptr %13, ptr %8, align 8, !tbaa !16
  call void @llvm.lifetime.start.p0(i64 8, ptr %9) #5
  call void @llvm.lifetime.start.p0(i64 16, ptr %10) #5
  call void @llvm.memset.p0.i64(ptr align 8 %4, i8 0, i64 16, i1 false)
  call void @llvm.memset.p0.i64(ptr align 8 %10, i8 0, i64 16, i1 false)
  %14 = load ptr, ptr %8, align 8, !tbaa !16
  %15 = getelementptr inbounds nuw %struct.cf_hc_ctx, ptr %14, i32 0, i32 5
  %16 = getelementptr inbounds nuw %struct.cf_hc_baller, ptr %15, i32 0, i32 5
  %17 = load i8, ptr %16, align 4
  %18 = and i8 %17, 1
  %19 = zext i8 %18 to i32
  %20 = icmp ne i32 %19, 0
  br i1 %20, label %21, label %26

21:                                               ; preds = %3
  %22 = load ptr, ptr %8, align 8, !tbaa !16
  %23 = getelementptr inbounds nuw %struct.cf_hc_ctx, ptr %22, i32 0, i32 5
  %24 = getelementptr inbounds nuw %struct.cf_hc_baller, ptr %23, i32 0, i32 1
  %25 = load ptr, ptr %24, align 8, !tbaa !148
  br label %27

26:                                               ; preds = %3
  br label %27

27:                                               ; preds = %26, %21
  %28 = phi ptr [ %25, %21 ], [ null, %26 ]
  store ptr %28, ptr %9, align 8, !tbaa !4
  %29 = load ptr, ptr %9, align 8, !tbaa !4
  %30 = icmp ne ptr %29, null
  br i1 %30, label %31, label %63

31:                                               ; preds = %27
  %32 = load ptr, ptr %9, align 8, !tbaa !4
  %33 = getelementptr inbounds nuw %struct.Curl_cfilter, ptr %32, i32 0, i32 0
  %34 = load ptr, ptr %33, align 8, !tbaa !87
  %35 = getelementptr inbounds nuw %struct.Curl_cftype, ptr %34, i32 0, i32 15
  %36 = load ptr, ptr %35, align 8, !tbaa !137
  %37 = load ptr, ptr %9, align 8, !tbaa !4
  %38 = load ptr, ptr %6, align 8, !tbaa !9
  %39 = load i32, ptr %7, align 4, !tbaa !95
  %40 = call i32 %36(ptr noundef %37, ptr noundef %38, i32 noundef %39, ptr noundef null, ptr noundef %10)
  %41 = icmp ne i32 %40, 0
  br i1 %41, label %63, label %42

42:                                               ; preds = %31
  %43 = getelementptr inbounds nuw %struct.curltime, ptr %10, i32 0, i32 0
  %44 = load i64, ptr %43, align 8, !tbaa !149
  %45 = icmp ne i64 %44, 0
  br i1 %45, label %50, label %46

46:                                               ; preds = %42
  %47 = getelementptr inbounds nuw %struct.curltime, ptr %10, i32 0, i32 1
  %48 = load i32, ptr %47, align 8, !tbaa !150
  %49 = icmp ne i32 %48, 0
  br i1 %49, label %50, label %62

50:                                               ; preds = %46, %42
  %51 = getelementptr inbounds nuw { i64, i32 }, ptr %10, i32 0, i32 0
  %52 = load i64, ptr %51, align 8
  %53 = getelementptr inbounds nuw { i64, i32 }, ptr %10, i32 0, i32 1
  %54 = load i32, ptr %53, align 8
  %55 = getelementptr inbounds nuw { i64, i32 }, ptr %4, i32 0, i32 0
  %56 = load i64, ptr %55, align 8
  %57 = getelementptr inbounds nuw { i64, i32 }, ptr %4, i32 0, i32 1
  %58 = load i32, ptr %57, align 8
  %59 = call i64 @Curl_timediff_us(i64 %52, i32 %54, i64 %56, i32 %58)
  %60 = icmp sgt i64 %59, 0
  br i1 %60, label %61, label %62

61:                                               ; preds = %50
  call void @llvm.memcpy.p0.p0.i64(ptr align 8 %4, ptr align 8 %10, i64 16, i1 false), !tbaa.struct !96
  br label %62

62:                                               ; preds = %61, %50, %46
  br label %63

63:                                               ; preds = %62, %31, %27
  call void @llvm.memset.p0.i64(ptr align 8 %10, i8 0, i64 16, i1 false)
  %64 = load ptr, ptr %8, align 8, !tbaa !16
  %65 = getelementptr inbounds nuw %struct.cf_hc_ctx, ptr %64, i32 0, i32 4
  %66 = getelementptr inbounds nuw %struct.cf_hc_baller, ptr %65, i32 0, i32 5
  %67 = load i8, ptr %66, align 4
  %68 = and i8 %67, 1
  %69 = zext i8 %68 to i32
  %70 = icmp ne i32 %69, 0
  br i1 %70, label %71, label %76

71:                                               ; preds = %63
  %72 = load ptr, ptr %8, align 8, !tbaa !16
  %73 = getelementptr inbounds nuw %struct.cf_hc_ctx, ptr %72, i32 0, i32 4
  %74 = getelementptr inbounds nuw %struct.cf_hc_baller, ptr %73, i32 0, i32 1
  %75 = load ptr, ptr %74, align 8, !tbaa !151
  br label %77

76:                                               ; preds = %63
  br label %77

77:                                               ; preds = %76, %71
  %78 = phi ptr [ %75, %71 ], [ null, %76 ]
  store ptr %78, ptr %9, align 8, !tbaa !4
  %79 = load ptr, ptr %9, align 8, !tbaa !4
  %80 = icmp ne ptr %79, null
  br i1 %80, label %81, label %113

81:                                               ; preds = %77
  %82 = load ptr, ptr %9, align 8, !tbaa !4
  %83 = getelementptr inbounds nuw %struct.Curl_cfilter, ptr %82, i32 0, i32 0
  %84 = load ptr, ptr %83, align 8, !tbaa !87
  %85 = getelementptr inbounds nuw %struct.Curl_cftype, ptr %84, i32 0, i32 15
  %86 = load ptr, ptr %85, align 8, !tbaa !137
  %87 = load ptr, ptr %9, align 8, !tbaa !4
  %88 = load ptr, ptr %6, align 8, !tbaa !9
  %89 = load i32, ptr %7, align 4, !tbaa !95
  %90 = call i32 %86(ptr noundef %87, ptr noundef %88, i32 noundef %89, ptr noundef null, ptr noundef %10)
  %91 = icmp ne i32 %90, 0
  br i1 %91, label %113, label %92

92:                                               ; preds = %81
  %93 = getelementptr inbounds nuw %struct.curltime, ptr %10, i32 0, i32 0
  %94 = load i64, ptr %93, align 8, !tbaa !149
  %95 = icmp ne i64 %94, 0
  br i1 %95, label %100, label %96

96:                                               ; preds = %92
  %97 = getelementptr inbounds nuw %struct.curltime, ptr %10, i32 0, i32 1
  %98 = load i32, ptr %97, align 8, !tbaa !150
  %99 = icmp ne i32 %98, 0
  br i1 %99, label %100, label %112

100:                                              ; preds = %96, %92
  %101 = getelementptr inbounds nuw { i64, i32 }, ptr %10, i32 0, i32 0
  %102 = load i64, ptr %101, align 8
  %103 = getelementptr inbounds nuw { i64, i32 }, ptr %10, i32 0, i32 1
  %104 = load i32, ptr %103, align 8
  %105 = getelementptr inbounds nuw { i64, i32 }, ptr %4, i32 0, i32 0
  %106 = load i64, ptr %105, align 8
  %107 = getelementptr inbounds nuw { i64, i32 }, ptr %4, i32 0, i32 1
  %108 = load i32, ptr %107, align 8
  %109 = call i64 @Curl_timediff_us(i64 %102, i32 %104, i64 %106, i32 %108)
  %110 = icmp sgt i64 %109, 0
  br i1 %110, label %111, label %112

111:                                              ; preds = %100
  call void @llvm.memcpy.p0.p0.i64(ptr align 8 %4, ptr align 8 %10, i64 16, i1 false), !tbaa.struct !96
  br label %112

112:                                              ; preds = %111, %100, %96
  br label %113

113:                                              ; preds = %112, %81, %77
  call void @llvm.lifetime.end.p0(i64 16, ptr %10) #5
  call void @llvm.lifetime.end.p0(i64 8, ptr %9) #5
  call void @llvm.lifetime.end.p0(i64 8, ptr %8) #5
  %114 = load { i64, i32 }, ptr %4, align 8
  ret { i64, i32 } %114
}