; Function Attrs: nounwind uwtable
define internal fastcc { i64, i32 } @cf_get_max_baller_time(ptr readonly captures(none) %.16.val, ptr noundef %0, i32 noundef range(i32 4, 6) %1) unnamed_addr #0 {
  %3 = alloca %struct.curltime, align 8
  call void @llvm.lifetime.start.p0(i64 16, ptr nonnull %3) #4
  call void @llvm.memset.p0.i64(ptr noundef nonnull align 8 dereferenceable(16) %3, i8 0, i64 16, i1 false)
  %4 = getelementptr inbounds nuw i8, ptr %.16.val, i64 132
  %5 = load i8, ptr %4, align 4
  %6 = and i8 %5, 1
  %.not = icmp eq i8 %6, 0
  br i1 %.not, label %.thread, label %7

7:                                                ; preds = %2
  %8 = getelementptr inbounds nuw i8, ptr %.16.val, i64 96
  %9 = load ptr, ptr %8, align 8, !tbaa !131
  %.not31 = icmp eq ptr %9, null
  br i1 %.not31, label %.thread, label %10

10:                                               ; preds = %7
  %11 = load ptr, ptr %9, align 8, !tbaa !83
  %12 = getelementptr inbounds nuw i8, ptr %11, i64 112
  %13 = load ptr, ptr %12, align 8, !tbaa !116
  %14 = call i32 %13(ptr noundef nonnull %9, ptr noundef %0, i32 noundef %1, ptr noundef null, ptr noundef nonnull %3) #4
  %.not32 = icmp eq i32 %14, 0
  br i1 %.not32, label %15, label %.thread

15:                                               ; preds = %10
  %16 = load i64, ptr %3, align 8, !tbaa !132
  %17 = icmp ne i64 %16, 0
  %18 = getelementptr inbounds nuw i8, ptr %3, i64 8
  %19 = load i32, ptr %18, align 8
  %20 = icmp ne i32 %19, 0
  %or.cond = select i1 %17, i1 true, i1 %20
  br i1 %or.cond, label %21, label %.thread

21:                                               ; preds = %15
  %22 = call i64 @Curl_timediff_us(i64 %16, i32 %19, i64 0, i32 0) #4
  %23 = icmp sgt i64 %22, 0
  br i1 %23, label %24, label %.thread

24:                                               ; preds = %21
  %.sroa.0.0.copyload = load i64, ptr %3, align 8, !tbaa !99
  %.sroa.6.0.copyload = load i32, ptr %18, align 8, !tbaa !100
  br label %.thread

.thread:                                          ; preds = %2, %21, %24, %15, %10, %7
  %.sroa.6.0 = phi i32 [ 0, %10 ], [ %.sroa.6.0.copyload, %24 ], [ 0, %21 ], [ 0, %15 ], [ 0, %7 ], [ 0, %2 ]
  %.sroa.0.0 = phi i64 [ 0, %10 ], [ %.sroa.0.0.copyload, %24 ], [ 0, %21 ], [ 0, %15 ], [ 0, %7 ], [ 0, %2 ]
  call void @llvm.memset.p0.i64(ptr noundef nonnull align 8 dereferenceable(16) %3, i8 0, i64 16, i1 false)
  %25 = getelementptr inbounds nuw i8, ptr %.16.val, i64 84
  %26 = load i8, ptr %25, align 4
  %27 = and i8 %26, 1
  %.not33 = icmp eq i8 %27, 0
  br i1 %.not33, label %.thread2, label %28

28:                                               ; preds = %.thread
  %29 = getelementptr inbounds nuw i8, ptr %.16.val, i64 48
  %30 = load ptr, ptr %29, align 8, !tbaa !133
  %.not34 = icmp eq ptr %30, null
  br i1 %.not34, label %.thread2, label %31

31:                                               ; preds = %28
  %32 = load ptr, ptr %30, align 8, !tbaa !83
  %33 = getelementptr inbounds nuw i8, ptr %32, i64 112
  %34 = load ptr, ptr %33, align 8, !tbaa !116
  %35 = call i32 %34(ptr noundef nonnull %30, ptr noundef %0, i32 noundef %1, ptr noundef null, ptr noundef nonnull %3) #4
  %.not35 = icmp eq i32 %35, 0
  br i1 %.not35, label %36, label %.thread2

36:                                               ; preds = %31
  %37 = load i64, ptr %3, align 8, !tbaa !132
  %38 = icmp ne i64 %37, 0
  %39 = getelementptr inbounds nuw i8, ptr %3, i64 8
  %40 = load i32, ptr %39, align 8
  %41 = icmp ne i32 %40, 0
  %or.cond5 = select i1 %38, i1 true, i1 %41
  br i1 %or.cond5, label %42, label %.thread2

42:                                               ; preds = %36
  %43 = call i64 @Curl_timediff_us(i64 %37, i32 %40, i64 %.sroa.0.0, i32 %.sroa.6.0) #4
  %44 = icmp sgt i64 %43, 0
  br i1 %44, label %45, label %.thread2

45:                                               ; preds = %42
  %.sroa.0.0.copyload20 = load i64, ptr %3, align 8, !tbaa !99
  %.sroa.6.0.copyload22 = load i32, ptr %39, align 8, !tbaa !100
  br label %.thread2

.thread2:                                         ; preds = %.thread, %42, %45, %36, %31, %28
  %.sroa.6.1 = phi i32 [ %.sroa.6.0, %31 ], [ %.sroa.6.0.copyload22, %45 ], [ %.sroa.6.0, %42 ], [ %.sroa.6.0, %36 ], [ %.sroa.6.0, %28 ], [ %.sroa.6.0, %.thread ]
  %.sroa.0.1 = phi i64 [ %.sroa.0.0, %31 ], [ %.sroa.0.0.copyload20, %45 ], [ %.sroa.0.0, %42 ], [ %.sroa.0.0, %36 ], [ %.sroa.0.0, %28 ], [ %.sroa.0.0, %.thread ]
  call void @llvm.lifetime.end.p0(i64 16, ptr nonnull %3) #4
  %.fca.0.insert = insertvalue { i64, i32 } poison, i64 %.sroa.0.1, 0
  %.fca.1.insert = insertvalue { i64, i32 } %.fca.0.insert, i32 %.sroa.6.1, 1
  ret { i64, i32 } %.fca.1.insert
}